target datalayout = "e-m:e-p270:32:32-p271:32:32-p272:64:64-i64:64-i128:128-f80:128-n8:16:32:64-S128"
target triple = "x86_64-unknown-linux-gnu"

%"class.node::BaseObject" = type { %"class.node::MemoryRetainer", %"class.v8::Global", ptr, ptr }
%"class.node::MemoryRetainer" = type { ptr }
%"class.v8::Global" = type { %"class.v8::PersistentBase" }
%"class.v8::PersistentBase" = type { %"class.v8::IndirectHandleBase" }
%"class.v8::IndirectHandleBase" = type { ptr }
%"class.node::AliasedBufferBase<unsigned int, v8::Uint32Array>::Reference" = type { ptr, i64 }
%"class.node::http2::Http2State" = type { %"class.node::BaseObject", %"class.node::AliasedBufferBase", %"class.node::AliasedBufferBase.68", %"class.node::AliasedBufferBase.68", %"class.node::AliasedBufferBase.68", %"class.node::AliasedBufferBase.68", %"class.node::AliasedBufferBase.71", %"class.node::AliasedBufferBase.71" }
%"class.node::AliasedBufferBase" = type { %"class.node::MemoryRetainer", ptr, i64, i64, ptr, %"class.v8::Global.66", ptr }
%"class.v8::Global.66" = type { %"class.v8::PersistentBase.67" }
%"class.v8::PersistentBase.67" = type { %"class.v8::IndirectHandleBase" }
%"class.node::AliasedBufferBase.68" = type { %"class.node::MemoryRetainer", ptr, i64, i64, ptr, %"class.v8::Global.69", ptr }
%"class.v8::Global.69" = type { %"class.v8::PersistentBase.70" }
%"class.v8::PersistentBase.70" = type { %"class.v8::IndirectHandleBase" }
%"class.node::AliasedBufferBase.71" = type { %"class.node::MemoryRetainer", ptr, i64, i64, ptr, %"class.v8::Global.72", ptr }
%"class.v8::Global.72" = type { %"class.v8::PersistentBase.73" }
%"class.v8::PersistentBase.73" = type { %"class.v8::IndirectHandleBase" }

@_ZN4node5http2L34DEFAULT_SETTINGS_HEADER_TABLE_SIZEE = internal constant i32 4096, align 4
@_ZN4node5http2L28DEFAULT_SETTINGS_ENABLE_PUSHE = internal constant i32 1, align 4
@_ZN4node5http2L39DEFAULT_SETTINGS_MAX_CONCURRENT_STREAMSE = internal constant i32 -1, align 4
@_ZN4node5http2L36DEFAULT_SETTINGS_INITIAL_WINDOW_SIZEE = internal constant i32 65535, align 4
@_ZN4node5http2L31DEFAULT_SETTINGS_MAX_FRAME_SIZEE = internal constant i32 16384, align 4
@_ZN4node5http2L37DEFAULT_SETTINGS_MAX_HEADER_LIST_SIZEE = internal constant i32 65535, align 4
@_ZN4node5http2L40DEFAULT_SETTINGS_ENABLE_CONNECT_PROTOCOLE = internal constant i32 0, align 4

; Function Attrs: mustprogress nounwind uwtable
define linkonce_odr dso_local void @_ZN4node17AliasedBufferBaseIjN2v811Uint32ArrayEE8SetValueEmj(ptr noundef nonnull align 8 dereferenceable(56) %this, i64 noundef %index, i32 noundef %value) #4 comdat align 2 {
entry:
  %this.addr = alloca ptr, align 8
  %index.addr = alloca i64, align 8
  %value.addr = alloca i32, align 4
  store ptr %this, ptr %this.addr, align 8
  store i64 %index, ptr %index.addr, align 8
  store i32 %value, ptr %value.addr, align 4
  %this1 = load ptr, ptr %this.addr, align 8
  %0 = load i32, ptr %value.addr, align 4
  %buffer_ = getelementptr inbounds %"class.node::AliasedBufferBase.71", ptr %this1, i32 0, i32 4
  %1 = load ptr, ptr %buffer_, align 8
  %2 = load i64, ptr %index.addr, align 8
  %arrayidx = getelementptr inbounds i32, ptr %1, i64 %2
  store i32 %0, ptr %arrayidx, align 4
  ret void
}

; Function Attrs: mustprogress nounwind uwtable
define linkonce_odr dso_local void @_ZN4node17AliasedBufferBaseIjN2v811Uint32ArrayEE9ReferenceC2EPS3_m(ptr noundef nonnull align 8 dereferenceable(16) %this, ptr noundef %aliased_buffer, i64 noundef %index) unnamed_addr #4 comdat align 2 {
entry:
  %this.addr = alloca ptr, align 8
  %aliased_buffer.addr = alloca ptr, align 8
  %index.addr = alloca i64, align 8
  store ptr %this, ptr %this.addr, align 8
  store ptr %aliased_buffer, ptr %aliased_buffer.addr, align 8
  store i64 %index, ptr %index.addr, align 8
  %this1 = load ptr, ptr %this.addr, align 8
  %aliased_buffer_ = getelementptr inbounds %"class.node::AliasedBufferBase<unsigned int, v8::Uint32Array>::Reference", ptr %this1, i32 0, i32 0
  %0 = load ptr, ptr %aliased_buffer.addr, align 8
  store ptr %0, ptr %aliased_buffer_, align 8
  %index_ = getelementptr inbounds %"class.node::AliasedBufferBase<unsigned int, v8::Uint32Array>::Reference", ptr %this1, i32 0, i32 1
  %1 = load i64, ptr %index.addr, align 8
  store i64 %1, ptr %index_, align 8
  ret void
}

; Function Attrs: mustprogress nounwind uwtable
define linkonce_odr dso_local noundef nonnull align 8 dereferenceable(16) ptr @_ZN4node17AliasedBufferBaseIjN2v811Uint32ArrayEE9ReferenceaSERKj(ptr noundef nonnull align 8 dereferenceable(16) %this, ptr noundef nonnull align 4 dereferenceable(4) %val) #4 comdat align 2 {
entry:
  %this.addr = alloca ptr, align 8
  %val.addr = alloca ptr, align 8
  store ptr %this, ptr %this.addr, align 8
  store ptr %val, ptr %val.addr, align 8
  %this1 = load ptr, ptr %this.addr, align 8
  %aliased_buffer_ = getelementptr inbounds %"class.node::AliasedBufferBase<unsigned int, v8::Uint32Array>::Reference", ptr %this1, i32 0, i32 0
  %0 = load ptr, ptr %aliased_buffer_, align 8
  %index_ = getelementptr inbounds %"class.node::AliasedBufferBase<unsigned int, v8::Uint32Array>::Reference", ptr %this1, i32 0, i32 1
  %1 = load i64, ptr %index_, align 8
  %2 = load ptr, ptr %val.addr, align 8
  %3 = load i32, ptr %2, align 4
  call void @_ZN4node17AliasedBufferBaseIjN2v811Uint32ArrayEE8SetValueEmj(ptr noundef nonnull align 8 dereferenceable(56) %0, i64 noundef %1, i32 noundef %3)
  ret ptr %this1
}

; Function Attrs: mustprogress nounwind uwtable
define linkonce_odr dso_local void @_ZN4node17AliasedBufferBaseIjN2v811Uint32ArrayEEixEm(ptr noalias sret(%"class.node::AliasedBufferBase<unsigned int, v8::Uint32Array>::Reference") align 8 %agg.result, ptr noundef nonnull align 8 dereferenceable(56) %this, i64 noundef %index) #4 comdat align 2 {
entry:
  %result.ptr = alloca ptr, align 8
  %this.addr = alloca ptr, align 8
  %index.addr = alloca i64, align 8
  store ptr %agg.result, ptr %result.ptr, align 8
  store ptr %this, ptr %this.addr, align 8
  store i64 %index, ptr %index.addr, align 8
  %this1 = load ptr, ptr %this.addr, align 8
  %0 = load i64, ptr %index.addr, align 8
  call void @_ZN4node17AliasedBufferBaseIjN2v811Uint32ArrayEE9ReferenceC2EPS3_m(ptr noundef nonnull align 8 dereferenceable(16) %agg.result, ptr noundef %this1, i64 noundef %0)
  ret void
}

; Function Attrs: mustprogress nounwind uwtable
define dso_local void @_ZN4node5http213Http2Settings15RefreshDefaultsEPNS0_10Http2StateE(ptr noundef %http2_state) #4 align 2 {
entry:
  %http2_state.addr = alloca ptr, align 8
  %buffer = alloca ptr, align 8
  %flags = alloca i32, align 4
  %ref.tmp = alloca %"class.node::AliasedBufferBase<unsigned int, v8::Uint32Array>::Reference", align 8
  %ref.tmp2 = alloca %"class.node::AliasedBufferBase<unsigned int, v8::Uint32Array>::Reference", align 8
  %ref.tmp7 = alloca %"class.node::AliasedBufferBase<unsigned int, v8::Uint32Array>::Reference", align 8
  %ref.tmp12 = alloca %"class.node::AliasedBufferBase<unsigned int, v8::Uint32Array>::Reference", align 8
  %ref.tmp17 = alloca %"class.node::AliasedBufferBase<unsigned int, v8::Uint32Array>::Reference", align 8
  %ref.tmp22 = alloca %"class.node::AliasedBufferBase<unsigned int, v8::Uint32Array>::Reference", align 8
  %ref.tmp27 = alloca %"class.node::AliasedBufferBase<unsigned int, v8::Uint32Array>::Reference", align 8
  %ref.tmp31 = alloca %"class.node::AliasedBufferBase<unsigned int, v8::Uint32Array>::Reference", align 8
  store ptr %http2_state, ptr %http2_state.addr, align 8
  %0 = load ptr, ptr %http2_state.addr, align 8
  %settings_buffer = getelementptr inbounds %"class.node::http2::Http2State", ptr %0, i32 0, i32 7
  store ptr %settings_buffer, ptr %buffer, align 8
  store i32 0, ptr %flags, align 4
  br label %do.body

do.body:                                          ; preds = %entry
  %1 = load ptr, ptr %buffer, align 8
  call void @_ZN4node17AliasedBufferBaseIjN2v811Uint32ArrayEEixEm(ptr sret(%"class.node::AliasedBufferBase<unsigned int, v8::Uint32Array>::Reference") align 8 %ref.tmp, ptr noundef nonnull align 8 dereferenceable(56) %1, i64 noundef 0)
  %call = call noundef nonnull align 8 dereferenceable(16) ptr @_ZN4node17AliasedBufferBaseIjN2v811Uint32ArrayEE9ReferenceaSERKj(ptr noundef nonnull align 8 dereferenceable(16) %ref.tmp, ptr noundef nonnull align 4 dereferenceable(4) @_ZN4node5http2L34DEFAULT_SETTINGS_HEADER_TABLE_SIZEE)
  %2 = load i32, ptr %flags, align 4
  %or = or i32 %2, 1
  store i32 %or, ptr %flags, align 4
  br label %do.end

do.end:                                           ; preds = %do.body
  br label %do.body1

do.body1:                                         ; preds = %do.end
  %3 = load ptr, ptr %buffer, align 8
  call void @_ZN4node17AliasedBufferBaseIjN2v811Uint32ArrayEEixEm(ptr sret(%"class.node::AliasedBufferBase<unsigned int, v8::Uint32Array>::Reference") align 8 %ref.tmp2, ptr noundef nonnull align 8 dereferenceable(56) %3, i64 noundef 1)
  %call3 = call noundef nonnull align 8 dereferenceable(16) ptr @_ZN4node17AliasedBufferBaseIjN2v811Uint32ArrayEE9ReferenceaSERKj(ptr noundef nonnull align 8 dereferenceable(16) %ref.tmp2, ptr noundef nonnull align 4 dereferenceable(4) @_ZN4node5http2L28DEFAULT_SETTINGS_ENABLE_PUSHE)
  %4 = load i32, ptr %flags, align 4
  %or4 = or i32 %4, 2
  store i32 %or4, ptr %flags, align 4
  br label %do.end5

do.end5:                                          ; preds = %do.body1
  br label %do.body6

do.body6:                                         ; preds = %do.end5
  %5 = load ptr, ptr %buffer, align 8
  call void @_ZN4node17AliasedBufferBaseIjN2v811Uint32ArrayEEixEm(ptr sret(%"class.node::AliasedBufferBase<unsigned int, v8::Uint32Array>::Reference") align 8 %ref.tmp7, ptr noundef nonnull align 8 dereferenceable(56) %5, i64 noundef 4)
  %call8 = call noundef nonnull align 8 dereferenceable(16) ptr @_ZN4node17AliasedBufferBaseIjN2v811Uint32ArrayEE9ReferenceaSERKj(ptr noundef nonnull align 8 dereferenceable(16) %ref.tmp7, ptr noundef nonnull align 4 dereferenceable(4) @_ZN4node5http2L39DEFAULT_SETTINGS_MAX_CONCURRENT_STREAMSE)
  %6 = load i32, ptr %flags, align 4
  %or9 = or i32 %6, 16
  store i32 %or9, ptr %flags, align 4
  br label %do.end10

do.end10:                                         ; preds = %do.body6
  br label %do.body11

do.body11:                                        ; preds = %do.end10
  %7 = load ptr, ptr %buffer, align 8
  call void @_ZN4node17AliasedBufferBaseIjN2v811Uint32ArrayEEixEm(ptr sret(%"class.node::AliasedBufferBase<unsigned int, v8::Uint32Array>::Reference") align 8 %ref.tmp12, ptr noundef nonnull align 8 dereferenceable(56) %7, i64 noundef 2)
  %call13 = call noundef nonnull align 8 dereferenceable(16) ptr @_ZN4node17AliasedBufferBaseIjN2v811Uint32ArrayEE9ReferenceaSERKj(ptr noundef nonnull align 8 dereferenceable(16) %ref.tmp12, ptr noundef nonnull align 4 dereferenceable(4) @_ZN4node5http2L36DEFAULT_SETTINGS_INITIAL_WINDOW_SIZEE)
  %8 = load i32, ptr %flags, align 4
  %or14 = or i32 %8, 4
  store i32 %or14, ptr %flags, align 4
  br label %do.end15

do.end15:                                         ; preds = %do.body11
  br label %do.body16

do.body16:                                        ; preds = %do.end15
  %9 = load ptr, ptr %buffer, align 8
  call void @_ZN4node17AliasedBufferBaseIjN2v811Uint32ArrayEEixEm(ptr sret(%"class.node::AliasedBufferBase<unsigned int, v8::Uint32Array>::Reference") align 8 %ref.tmp17, ptr noundef nonnull align 8 dereferenceable(56) %9, i64 noundef 3)
  %call18 = call noundef nonnull align 8 dereferenceable(16) ptr @_ZN4node17AliasedBufferBaseIjN2v811Uint32ArrayEE9ReferenceaSERKj(ptr noundef nonnull align 8 dereferenceable(16) %ref.tmp17, ptr noundef nonnull align 4 dereferenceable(4) @_ZN4node5http2L31DEFAULT_SETTINGS_MAX_FRAME_SIZEE)
  %10 = load i32, ptr %flags, align 4
  %or19 = or i32 %10, 8
  store i32 %or19, ptr %flags, align 4
  br label %do.end20

do.end20:                                         ; preds = %do.body16
  br label %do.body21

do.body21:                                        ; preds = %do.end20
  %11 = load ptr, ptr %buffer, align 8
  call void @_ZN4node17AliasedBufferBaseIjN2v811Uint32ArrayEEixEm(ptr sret(%"class.node::AliasedBufferBase<unsigned int, v8::Uint32Array>::Reference") align 8 %ref.tmp22, ptr noundef nonnull align 8 dereferenceable(56) %11, i64 noundef 5)
  %call23 = call noundef nonnull align 8 dereferenceable(16) ptr @_ZN4node17AliasedBufferBaseIjN2v811Uint32ArrayEE9ReferenceaSERKj(ptr noundef nonnull align 8 dereferenceable(16) %ref.tmp22, ptr noundef nonnull align 4 dereferenceable(4) @_ZN4node5http2L37DEFAULT_SETTINGS_MAX_HEADER_LIST_SIZEE)
  %12 = load i32, ptr %flags, align 4
  %or24 = or i32 %12, 32
  store i32 %or24, ptr %flags, align 4
  br label %do.end25

do.end25:                                         ; preds = %do.body21
  br label %do.body26

do.body26:                                        ; preds = %do.end25
  %13 = load ptr, ptr %buffer, align 8
  call void @_ZN4node17AliasedBufferBaseIjN2v811Uint32ArrayEEixEm(ptr sret(%"class.node::AliasedBufferBase<unsigned int, v8::Uint32Array>::Reference") align 8 %ref.tmp27, ptr noundef nonnull align 8 dereferenceable(56) %13, i64 noundef 6)
  %call28 = call noundef nonnull align 8 dereferenceable(16) ptr @_ZN4node17AliasedBufferBaseIjN2v811Uint32ArrayEE9ReferenceaSERKj(ptr noundef nonnull align 8 dereferenceable(16) %ref.tmp27, ptr noundef nonnull align 4 dereferenceable(4) @_ZN4node5http2L40DEFAULT_SETTINGS_ENABLE_CONNECT_PROTOCOLE)
  %14 = load i32, ptr %flags, align 4
  %or29 = or i32 %14, 64
  store i32 %or29, ptr %flags, align 4
  br label %do.end30

do.end30:                                         ; preds = %do.body26
  %15 = load ptr, ptr %buffer, align 8
  call void @_ZN4node17AliasedBufferBaseIjN2v811Uint32ArrayEEixEm(ptr sret(%"class.node::AliasedBufferBase<unsigned int, v8::Uint32Array>::Reference") align 8 %ref.tmp31, ptr noundef nonnull align 8 dereferenceable(56) %15, i64 noundef 7)
  %call32 = call noundef nonnull align 8 dereferenceable(16) ptr @_ZN4node17AliasedBufferBaseIjN2v811Uint32ArrayEE9ReferenceaSERKj(ptr noundef nonnull align 8 dereferenceable(16) %ref.tmp31, ptr noundef nonnull align 4 dereferenceable(4) %flags)
  ret void
}

; Function Attrs: mustprogress nounwind uwtable
define dso_local void @_ZN4node5http222RefreshDefaultSettingsERKN2v820FunctionCallbackInfoINS1_5ValueEEE(ptr noundef nonnull align 8 dereferenceable(20) %args) #4 {
entry:
  %args.addr = alloca ptr, align 8
  %state = alloca ptr, align 8
  store ptr %args, ptr %args.addr, align 8
  %0 = load ptr, ptr %args.addr, align 8
  %call = call noundef ptr @_ZN4node5Realm14GetBindingDataINS_5http210Http2StateEEEPT_RKN2v820FunctionCallbackInfoINS6_5ValueEEE(ptr noundef nonnull align 8 dereferenceable(20) %0)
  store ptr %call, ptr %state, align 8
  %1 = load ptr, ptr %state, align 8
  call void @_ZN4node5http213Http2Settings15RefreshDefaultsEPNS0_10Http2StateE(ptr noundef %1)
  ret void
}