; Function Attrs: mustprogress nounwind uwtable
define dso_local void @_ZN4node5http222RefreshDefaultSettingsERKN2v820FunctionCallbackInfoINS1_5ValueEEE(ptr noundef nonnull align 8 dereferenceable(20) %args) #4 {
entry:
  %call = tail call noundef ptr @_ZN4node5Realm14GetBindingDataINS_5http210Http2StateEEEPT_RKN2v820FunctionCallbackInfoINS6_5ValueEEE(ptr noundef nonnull align 8 dereferenceable(20) %args)
  %buffer_.i.i.i = getelementptr inbounds i8, ptr %call, i64 400
  %0 = load ptr, ptr %buffer_.i.i.i, align 8
  store i32 4096, ptr %0, align 4
  %1 = load ptr, ptr %buffer_.i.i.i, align 8
  %arrayidx.i.i11.i = getelementptr inbounds i8, ptr %1, i64 4
  store i32 1, ptr %arrayidx.i.i11.i, align 4
  %2 = load ptr, ptr %buffer_.i.i.i, align 8
  %arrayidx.i.i15.i = getelementptr inbounds i8, ptr %2, i64 16
  store i32 -1, ptr %arrayidx.i.i15.i, align 4
  %3 = load ptr, ptr %buffer_.i.i.i, align 8
  %arrayidx.i.i19.i = getelementptr inbounds i8, ptr %3, i64 8
  store i32 65535, ptr %arrayidx.i.i19.i, align 4
  %4 = load ptr, ptr %buffer_.i.i.i, align 8
  %arrayidx.i.i23.i = getelementptr inbounds i8, ptr %4, i64 12
  store i32 16384, ptr %arrayidx.i.i23.i, align 4
  %5 = load ptr, ptr %buffer_.i.i.i, align 8
  %arrayidx.i.i27.i = getelementptr inbounds i8, ptr %5, i64 20
  store i32 65535, ptr %arrayidx.i.i27.i, align 4
  %6 = load ptr, ptr %buffer_.i.i.i, align 8
  %arrayidx.i.i31.i = getelementptr inbounds i8, ptr %6, i64 24
  store i32 0, ptr %arrayidx.i.i31.i, align 4
  %7 = load ptr, ptr %buffer_.i.i.i, align 8
  %arrayidx.i.i35.i = getelementptr inbounds i8, ptr %7, i64 28
  store i32 127, ptr %arrayidx.i.i35.i, align 4
  ret void
}